target datalayout = "e-m:e-p270:32:32-p271:32:32-p272:64:64-i64:64-i128:128-f80:128-n8:16:32:64-S128"
target triple = "x86_64-pc-linux-gnu"

@tcg_ctx = external thread_local global ptr, align 8

; Function Attrs: inlinehint nounwind sspstrong uwtable
define internal i64 @temp_arg(ptr noundef %0) #4 {
  %2 = alloca ptr, align 8
  store ptr %0, ptr %2, align 8
  %3 = load ptr, ptr %2, align 8
  %4 = ptrtoint ptr %3 to i64
  ret i64 %4
}

; Function Attrs: inlinehint nounwind sspstrong uwtable
define internal ptr @tcgv_i32_temp(ptr noundef %0) #4 {
  %2 = alloca ptr, align 8
  store ptr %0, ptr %2, align 8
  %3 = call align 8 ptr @llvm.threadlocal.address.p0(ptr align 8 @tcg_ctx)
  %4 = load ptr, ptr %3, align 8
  %5 = load ptr, ptr %2, align 8
  %6 = ptrtoint ptr %5 to i64
  %7 = getelementptr inbounds nuw i8, ptr %4, i64 %6
  ret ptr %7
}

; Function Attrs: nounwind sspstrong uwtable
define internal void @tcg_gen_op3_i32(i32 noundef %0, ptr noundef %1, ptr noundef %2, ptr noundef %3) #3 {
  %5 = alloca i32, align 4
  %6 = alloca ptr, align 8
  %7 = alloca ptr, align 8
  %8 = alloca ptr, align 8
  store i32 %0, ptr %5, align 4
  store ptr %1, ptr %6, align 8
  store ptr %2, ptr %7, align 8
  store ptr %3, ptr %8, align 8
  %9 = load i32, ptr %5, align 4
  %10 = load ptr, ptr %6, align 8
  %11 = call i64 @tcgv_i32_arg(ptr noundef %10)
  %12 = load ptr, ptr %7, align 8
  %13 = call i64 @tcgv_i32_arg(ptr noundef %12)
  %14 = load ptr, ptr %8, align 8
  %15 = call i64 @tcgv_i32_arg(ptr noundef %14)
  %16 = call ptr @tcg_gen_op3(i32 noundef %9, i32 noundef 0, i64 noundef %11, i64 noundef %13, i64 noundef %15)
  ret void
}

; Function Attrs: inlinehint nounwind sspstrong uwtable
define internal i64 @tcgv_i32_arg(ptr noundef %0) #4 {
  %2 = alloca ptr, align 8
  store ptr %0, ptr %2, align 8
  %3 = load ptr, ptr %2, align 8
  %4 = call ptr @tcgv_i32_temp(ptr noundef %3)
  %5 = call i64 @temp_arg(ptr noundef %4)
  ret i64 %5
}

; Function Attrs: nounwind sspstrong uwtable
define dso_local void @tcg_gen_and_i32(ptr noundef %0, ptr noundef %1, ptr noundef %2) #3 {
  %4 = alloca ptr, align 8
  %5 = alloca ptr, align 8
  %6 = alloca ptr, align 8
  store ptr %0, ptr %4, align 8
  store ptr %1, ptr %5, align 8
  store ptr %2, ptr %6, align 8
  %7 = load ptr, ptr %4, align 8
  %8 = load ptr, ptr %5, align 8
  %9 = load ptr, ptr %6, align 8
  call void @tcg_gen_op3_i32(i32 noundef 26, ptr noundef %7, ptr noundef %8, ptr noundef %9)
  ret void
}

; Function Attrs: nounwind sspstrong uwtable
define internal void @tcg_gen_op2_i32(i32 noundef %0, ptr noundef %1, ptr noundef %2) #3 {
  %4 = alloca i32, align 4
  %5 = alloca ptr, align 8
  %6 = alloca ptr, align 8
  store i32 %0, ptr %4, align 4
  store ptr %1, ptr %5, align 8
  store ptr %2, ptr %6, align 8
  %7 = load i32, ptr %4, align 4
  %8 = load ptr, ptr %5, align 8
  %9 = call i64 @tcgv_i32_arg(ptr noundef %8)
  %10 = load ptr, ptr %6, align 8
  %11 = call i64 @tcgv_i32_arg(ptr noundef %10)
  %12 = call ptr @tcg_gen_op2(i32 noundef %7, i32 noundef 0, i64 noundef %9, i64 noundef %11)
  ret void
}

; Function Attrs: nounwind sspstrong uwtable
define dso_local void @tcg_gen_mov_i32(ptr noundef %0, ptr noundef %1) #3 {
  %3 = alloca ptr, align 8
  %4 = alloca ptr, align 8
  store ptr %0, ptr %3, align 8
  store ptr %1, ptr %4, align 8
  %5 = load ptr, ptr %3, align 8
  %6 = load ptr, ptr %4, align 8
  %7 = icmp ne ptr %5, %6
  br i1 %7, label %8, label %11

8:                                                ; preds = %2
  %9 = load ptr, ptr %3, align 8
  %10 = load ptr, ptr %4, align 8
  call void @tcg_gen_op2_i32(i32 noundef 5, ptr noundef %9, ptr noundef %10)
  br label %11

11:                                               ; preds = %8, %2
  ret void
}

; Function Attrs: nounwind sspstrong uwtable
define dso_local void @tcg_gen_movi_i32(ptr noundef %0, i32 noundef %1) #3 {
  %3 = alloca ptr, align 8
  %4 = alloca i32, align 4
  store ptr %0, ptr %3, align 8
  store i32 %1, ptr %4, align 4
  %5 = load ptr, ptr %3, align 8
  %6 = load i32, ptr %4, align 4
  %7 = call ptr @tcg_constant_i32(i32 noundef %6)
  call void @tcg_gen_mov_i32(ptr noundef %5, ptr noundef %7)
  ret void
}

; Function Attrs: nounwind sspstrong uwtable
define dso_local void @tcg_gen_andi_i32(ptr noundef %0, ptr noundef %1, i32 noundef %2) #3 {
  %4 = alloca ptr, align 8
  %5 = alloca ptr, align 8
  %6 = alloca i32, align 4
  store ptr %0, ptr %4, align 8
  store ptr %1, ptr %5, align 8
  store i32 %2, ptr %6, align 4
  %7 = load i32, ptr %6, align 4
  switch i32 %7, label %19 [
    i32 0, label %8
    i32 -1, label %10
    i32 255, label %13
    i32 65535, label %16
  ]

8:                                                ; preds = %3
  %9 = load ptr, ptr %4, align 8
  call void @tcg_gen_movi_i32(ptr noundef %9, i32 noundef 0)
  br label %24

10:                                               ; preds = %3
  %11 = load ptr, ptr %4, align 8
  %12 = load ptr, ptr %5, align 8
  call void @tcg_gen_mov_i32(ptr noundef %11, ptr noundef %12)
  br label %24

13:                                               ; preds = %3
  %14 = load ptr, ptr %4, align 8
  %15 = load ptr, ptr %5, align 8
  call void @tcg_gen_op2_i32(i32 noundef 49, ptr noundef %14, ptr noundef %15)
  br label %24

16:                                               ; preds = %3
  %17 = load ptr, ptr %4, align 8
  %18 = load ptr, ptr %5, align 8
  call void @tcg_gen_op2_i32(i32 noundef 50, ptr noundef %17, ptr noundef %18)
  br label %24

19:                                               ; preds = %3
  %20 = load ptr, ptr %4, align 8
  %21 = load ptr, ptr %5, align 8
  %22 = load i32, ptr %6, align 4
  %23 = call ptr @tcg_constant_i32(i32 noundef %22)
  call void @tcg_gen_and_i32(ptr noundef %20, ptr noundef %21, ptr noundef %23)
  br label %24

24:                                               ; preds = %19, %16, %13, %10, %8
  ret void
}