; Function Attrs: nounwind sspstrong uwtable
define dso_local void @tcg_gen_andi_i32(ptr noundef %0, ptr noundef %1, i32 noundef %2) local_unnamed_addr #2 {
  switch i32 %2, label %47 [
    i32 0, label %4
    i32 -1, label %16
    i32 255, label %27
    i32 65535, label %37
  ]

4:                                                ; preds = %3
  %5 = tail call ptr @tcg_constant_i32(i32 noundef 0) #6
  %.not.i.i = icmp eq ptr %0, %5
  br i1 %.not.i.i, label %tcg_gen_movi_i32.exit, label %6

6:                                                ; preds = %4
  %7 = tail call align 8 ptr @llvm.threadlocal.address.p0(ptr align 8 @tcg_ctx)
  %8 = load ptr, ptr %7, align 8
  %9 = ptrtoint ptr %0 to i64
  %10 = getelementptr inbounds nuw i8, ptr %8, i64 %9
  %11 = ptrtoint ptr %10 to i64
  %12 = ptrtoint ptr %5 to i64
  %13 = getelementptr inbounds nuw i8, ptr %8, i64 %12
  %14 = ptrtoint ptr %13 to i64
  %15 = tail call ptr @tcg_gen_op2(i32 noundef 5, i32 noundef 0, i64 noundef %11, i64 noundef %14)
  br label %tcg_gen_movi_i32.exit

16:                                               ; preds = %3
  %.not.i = icmp eq ptr %0, %1
  br i1 %.not.i, label %tcg_gen_movi_i32.exit, label %17

17:                                               ; preds = %16
  %18 = tail call align 8 ptr @llvm.threadlocal.address.p0(ptr align 8 @tcg_ctx)
  %19 = load ptr, ptr %18, align 8
  %20 = ptrtoint ptr %0 to i64
  %21 = getelementptr inbounds nuw i8, ptr %19, i64 %20
  %22 = ptrtoint ptr %21 to i64
  %23 = ptrtoint ptr %1 to i64
  %24 = getelementptr inbounds nuw i8, ptr %19, i64 %23
  %25 = ptrtoint ptr %24 to i64
  %26 = tail call ptr @tcg_gen_op2(i32 noundef 5, i32 noundef 0, i64 noundef %22, i64 noundef %25)
  br label %tcg_gen_movi_i32.exit

27:                                               ; preds = %3
  %28 = tail call align 8 ptr @llvm.threadlocal.address.p0(ptr align 8 @tcg_ctx)
  %29 = load ptr, ptr %28, align 8
  %30 = ptrtoint ptr %0 to i64
  %31 = getelementptr inbounds nuw i8, ptr %29, i64 %30
  %32 = ptrtoint ptr %31 to i64
  %33 = ptrtoint ptr %1 to i64
  %34 = getelementptr inbounds nuw i8, ptr %29, i64 %33
  %35 = ptrtoint ptr %34 to i64
  %36 = tail call ptr @tcg_gen_op2(i32 noundef 49, i32 noundef 0, i64 noundef %32, i64 noundef %35)
  br label %tcg_gen_movi_i32.exit

37:                                               ; preds = %3
  %38 = tail call align 8 ptr @llvm.threadlocal.address.p0(ptr align 8 @tcg_ctx)
  %39 = load ptr, ptr %38, align 8
  %40 = ptrtoint ptr %0 to i64
  %41 = getelementptr inbounds nuw i8, ptr %39, i64 %40
  %42 = ptrtoint ptr %41 to i64
  %43 = ptrtoint ptr %1 to i64
  %44 = getelementptr inbounds nuw i8, ptr %39, i64 %43
  %45 = ptrtoint ptr %44 to i64
  %46 = tail call ptr @tcg_gen_op2(i32 noundef 50, i32 noundef 0, i64 noundef %42, i64 noundef %45)
  br label %tcg_gen_movi_i32.exit

47:                                               ; preds = %3
  %48 = tail call ptr @tcg_constant_i32(i32 noundef %2) #6
  %49 = tail call align 8 ptr @llvm.threadlocal.address.p0(ptr align 8 @tcg_ctx)
  %50 = load ptr, ptr %49, align 8
  %51 = ptrtoint ptr %0 to i64
  %52 = getelementptr inbounds nuw i8, ptr %50, i64 %51
  %53 = ptrtoint ptr %52 to i64
  %54 = ptrtoint ptr %1 to i64
  %55 = getelementptr inbounds nuw i8, ptr %50, i64 %54
  %56 = ptrtoint ptr %55 to i64
  %57 = ptrtoint ptr %48 to i64
  %58 = getelementptr inbounds nuw i8, ptr %50, i64 %57
  %59 = ptrtoint ptr %58 to i64
  %60 = tail call ptr @tcg_gen_op3(i32 noundef 26, i32 noundef 0, i64 noundef %53, i64 noundef %56, i64 noundef %59)
  br label %tcg_gen_movi_i32.exit

tcg_gen_movi_i32.exit:                            ; preds = %17, %16, %6, %4, %47, %37, %27
  ret void
}